; Function Attrs: alwaysinline norecurse nounwind uwtable
define internal void @_ZN8LightGBM18MultiValBinWrapper9HistMergeILb1ELi16ELi16EEEvPSt6vectorIdNS_6Common18AlignmentAllocatorIdLm32EEEE.omp_outlined(ptr noalias noundef readonly captures(none) %0, ptr noalias readnone captures(none) %1, ptr noundef nonnull readonly align 4 captures(none) dereferenceable(4) %2, ptr noundef nonnull readonly align 4 captures(none) dereferenceable(4) %3, ptr noundef readonly captures(none) %4, ptr noundef nonnull readonly align 8 captures(none) dereferenceable(8) %5, ptr noundef nonnull readonly align 8 captures(none) dereferenceable(8) %6) #5 {
  %8 = alloca i32, align 4
  %9 = alloca i32, align 4
  %10 = alloca i32, align 4
  %11 = alloca i32, align 4
  %12 = load i32, ptr %2, align 4, !tbaa !39
  %13 = add nsw i32 %12, -1
  %14 = icmp sgt i32 %12, 0
  br i1 %14, label %15, label %63

15:                                               ; preds = %7
  call void @llvm.lifetime.start.p0(i64 4, ptr nonnull %8) #6
  store i32 0, ptr %8, align 4, !tbaa !39
  call void @llvm.lifetime.start.p0(i64 4, ptr nonnull %9) #6
  store i32 %13, ptr %9, align 4, !tbaa !39
  call void @llvm.lifetime.start.p0(i64 4, ptr nonnull %10) #6
  store i32 1, ptr %10, align 4, !tbaa !39
  call void @llvm.lifetime.start.p0(i64 4, ptr nonnull %11) #6
  store i32 0, ptr %11, align 4, !tbaa !39
  %16 = load i32, ptr %0, align 4, !tbaa !39
  call void @__kmpc_for_static_init_4(ptr nonnull @1, i32 %16, i32 33, ptr nonnull %11, ptr nonnull %8, ptr nonnull %9, ptr nonnull %10, i32 1, i32 1)
  %17 = load i32, ptr %9, align 4, !tbaa !39
  %18 = call i32 @llvm.smin.i32(i32 %17, i32 %13)
  store i32 %18, ptr %9, align 4, !tbaa !39
  %19 = load i32, ptr %8, align 4, !tbaa !39
  %.not39 = icmp sgt i32 %19, %18
  br i1 %.not39, label %._crit_edge40, label %.preheader.lr.ph

.preheader.lr.ph:                                 ; preds = %15
  %20 = getelementptr inbounds nuw i8, ptr %4, i64 124
  %21 = getelementptr inbounds nuw i8, ptr %4, i64 132
  %22 = getelementptr inbounds nuw i8, ptr %4, i64 128
  br label %.preheader

.preheader:                                       ; preds = %.preheader.lr.ph, %._crit_edge
  %23 = phi i32 [ %18, %.preheader.lr.ph ], [ %62, %._crit_edge ]
  %24 = phi i32 [ %19, %.preheader.lr.ph ], [ %60, %._crit_edge ]
  %.not3037 = icmp sgt i32 %24, %23
  br i1 %.not3037, label %._crit_edge, label %.lr.ph

.lr.ph:                                           ; preds = %.preheader
  %25 = load ptr, ptr %5, align 8
  %26 = load i32, ptr %21, align 4, !tbaa !59
  %27 = icmp sgt i32 %26, 1
  br i1 %27, label %.lr.ph.split, label %._crit_edge

.lr.ph.split:                                     ; preds = %.lr.ph, %._crit_edge36
  %28 = phi i32 [ %55, %._crit_edge36 ], [ %23, %.lr.ph ]
  %29 = phi i32 [ %56, %._crit_edge36 ], [ %26, %.lr.ph ]
  %.02738 = phi i32 [ %57, %._crit_edge36 ], [ %24, %.lr.ph ]
  %30 = load i32, ptr %3, align 4, !tbaa !39
  %31 = mul i32 %30, %.02738
  %32 = add nsw i32 %31, %30
  %33 = load i32, ptr %20, align 4, !tbaa !39
  %.sroa.speculated = call i32 @llvm.smin.i32(i32 %33, i32 %32)
  %34 = icmp sgt i32 %29, 1
  br i1 %34, label %.lr.ph35, label %._crit_edge36

.lr.ph35:                                         ; preds = %.lr.ph.split
  %35 = load ptr, ptr %25, align 8, !tbaa !31
  %36 = icmp slt i32 %31, %.sroa.speculated
  %37 = load ptr, ptr %6, align 8
  br i1 %36, label %.lr.ph.us.preheader, label %._crit_edge36

.lr.ph.us.preheader:                              ; preds = %.lr.ph35
  %38 = sext i32 %31 to i64
  %39 = sext i32 %.sroa.speculated to i64
  br label %.lr.ph.us

.lr.ph.us:                                        ; preds = %.lr.ph.us.preheader, %._crit_edge.us
  %indvars.iv45 = phi i64 [ 1, %.lr.ph.us.preheader ], [ %indvars.iv.next46, %._crit_edge.us ]
  %40 = load i32, ptr %22, align 8, !tbaa !34
  %41 = sext i32 %40 to i64
  %42 = add nsw i64 %indvars.iv45, -1
  %43 = mul nsw i64 %42, %41
  %44 = getelementptr inbounds nuw i32, ptr %35, i64 %43
  br label %45

45:                                               ; preds = %.lr.ph.us, %45
  %indvars.iv = phi i64 [ %38, %.lr.ph.us ], [ %indvars.iv.next, %45 ]
  %46 = getelementptr inbounds i32, ptr %44, i64 %indvars.iv
  %47 = load i32, ptr %46, align 4, !tbaa !39
  %48 = getelementptr inbounds i32, ptr %37, i64 %indvars.iv
  %49 = load i32, ptr %48, align 4, !tbaa !39
  %50 = add nsw i32 %49, %47
  store i32 %50, ptr %48, align 4, !tbaa !39
  %indvars.iv.next = add nsw i64 %indvars.iv, 1
  %51 = icmp slt i64 %indvars.iv.next, %39
  br i1 %51, label %45, label %._crit_edge.us, !llvm.loop !74

._crit_edge.us:                                   ; preds = %45
  %indvars.iv.next46 = add nuw nsw i64 %indvars.iv45, 1
  %52 = load i32, ptr %21, align 4, !tbaa !59
  %53 = sext i32 %52 to i64
  %54 = icmp slt i64 %indvars.iv.next46, %53
  br i1 %54, label %.lr.ph.us, label %._crit_edge36.loopexit, !llvm.loop !75

._crit_edge36.loopexit:                           ; preds = %._crit_edge.us
  %.pre = load i32, ptr %9, align 4, !tbaa !39
  br label %._crit_edge36

._crit_edge36:                                    ; preds = %.lr.ph35, %._crit_edge36.loopexit, %.lr.ph.split
  %55 = phi i32 [ %.pre, %._crit_edge36.loopexit ], [ %28, %.lr.ph.split ], [ %28, %.lr.ph35 ]
  %56 = phi i32 [ %52, %._crit_edge36.loopexit ], [ %29, %.lr.ph.split ], [ %29, %.lr.ph35 ]
  %57 = add nsw i32 %.02738, 1
  %.not30.not = icmp slt i32 %.02738, %55
  br i1 %.not30.not, label %.lr.ph.split, label %._crit_edge.loopexit, !llvm.loop !76

._crit_edge.loopexit:                             ; preds = %._crit_edge36
  %.pre48 = load i32, ptr %8, align 4, !tbaa !39
  br label %._crit_edge

._crit_edge:                                      ; preds = %.lr.ph, %._crit_edge.loopexit, %.preheader
  %58 = phi i32 [ %24, %.preheader ], [ %.pre48, %._crit_edge.loopexit ], [ %24, %.lr.ph ]
  %.lcssa = phi i32 [ %23, %.preheader ], [ %55, %._crit_edge.loopexit ], [ %23, %.lr.ph ]
  %59 = load i32, ptr %10, align 4, !tbaa !39
  %60 = add nsw i32 %59, %58
  store i32 %60, ptr %8, align 4, !tbaa !39
  %61 = add nsw i32 %59, %.lcssa
  %62 = call i32 @llvm.smin.i32(i32 %61, i32 %13)
  store i32 %62, ptr %9, align 4, !tbaa !39
  %.not = icmp sgt i32 %60, %62
  br i1 %.not, label %._crit_edge40, label %.preheader

._crit_edge40:                                    ; preds = %._crit_edge, %15
  call void @__kmpc_for_static_fini(ptr nonnull @1, i32 %16)
  call void @llvm.lifetime.end.p0(i64 4, ptr nonnull %11) #6
  call void @llvm.lifetime.end.p0(i64 4, ptr nonnull %10) #6
  call void @llvm.lifetime.end.p0(i64 4, ptr nonnull %9) #6
  call void @llvm.lifetime.end.p0(i64 4, ptr nonnull %8) #6
  br label %63

63:                                               ; preds = %._crit_edge40, %7
  ret void
}